; Function Attrs: mustprogress nounwind uwtable
define hidden noundef zeroext i1 @_ZN4nori8endsWithERKNSt7__cxx1112basic_stringIcSt11char_traitsIcESaIcEEES7_(ptr noundef nonnull align 8 dereferenceable(32) %0, ptr noundef nonnull align 8 dereferenceable(32) %1) local_unnamed_addr #4 {
  %3 = alloca %"class.std::reverse_iterator", align 8
  %4 = alloca %"class.std::reverse_iterator", align 8
  %5 = alloca %"class.std::reverse_iterator", align 8
  %6 = tail call noundef i64 @_ZNKSt7__cxx1112basic_stringIcSt11char_traitsIcESaIcEE4sizeEv(ptr noundef nonnull align 8 dereferenceable(32) %1) #26
  %7 = tail call noundef i64 @_ZNKSt7__cxx1112basic_stringIcSt11char_traitsIcESaIcEE4sizeEv(ptr noundef nonnull align 8 dereferenceable(32) %0) #26
  %8 = icmp ugt i64 %6, %7
  br i1 %8, label %_ZSt5equalISt16reverse_iteratorIN9__gnu_cxx17__normal_iteratorIPKcNSt7__cxx1112basic_stringIcSt11char_traitsIcESaIcEEEEEESC_EbT_SD_T0_.exit, label %9

9:                                                ; preds = %2
  call void @_ZNKSt7__cxx1112basic_stringIcSt11char_traitsIcESaIcEE6rbeginEv(ptr dead_on_unwind nonnull writable sret(%"class.std::reverse_iterator") align 8 %3, ptr noundef nonnull align 8 dereferenceable(32) %1) #26
  call void @_ZNKSt7__cxx1112basic_stringIcSt11char_traitsIcESaIcEE4rendEv(ptr dead_on_unwind nonnull writable sret(%"class.std::reverse_iterator") align 8 %4, ptr noundef nonnull align 8 dereferenceable(32) %1) #26
  call void @_ZNKSt7__cxx1112basic_stringIcSt11char_traitsIcESaIcEE6rbeginEv(ptr dead_on_unwind nonnull writable sret(%"class.std::reverse_iterator") align 8 %5, ptr noundef nonnull align 8 dereferenceable(32) %0) #26
  %10 = load i64, ptr %3, align 8
  %11 = load i64, ptr %4, align 8
  %12 = inttoptr i64 %10 to ptr
  %13 = inttoptr i64 %11 to ptr
  %.not1.i.i.i.i = icmp eq ptr %12, %13
  br i1 %.not1.i.i.i.i, label %_ZSt5equalISt16reverse_iteratorIN9__gnu_cxx17__normal_iteratorIPKcNSt7__cxx1112basic_stringIcSt11char_traitsIcESaIcEEEEEESC_EbT_SD_T0_.exit, label %.lr.ph.i.i.preheader.i.i

.lr.ph.i.i.preheader.i.i:                         ; preds = %9
  %14 = load i64, ptr %5, align 8
  %15 = inttoptr i64 %14 to ptr
  br label %.lr.ph.i.i.i.i

.lr.ph.i.i.i.i:                                   ; preds = %.lr.ph.i.i.i.i, %.lr.ph.i.i.preheader.i.i
  %.sroa.0.0.i.i.i = phi ptr [ %15, %.lr.ph.i.i.preheader.i.i ], [ %19, %.lr.ph.i.i.i.i ]
  %16 = phi ptr [ %12, %.lr.ph.i.i.preheader.i.i ], [ %17, %.lr.ph.i.i.i.i ]
  %17 = getelementptr inbounds i8, ptr %16, i64 -1
  %18 = load i8, ptr %17, align 1
  %19 = getelementptr inbounds i8, ptr %.sroa.0.0.i.i.i, i64 -1
  %20 = load i8, ptr %19, align 1
  %21 = icmp eq i8 %18, %20
  %.not.i.i.i.i = icmp ne ptr %17, %13
  %or.cond.not = and i1 %.not.i.i.i.i, %21
  br i1 %or.cond.not, label %.lr.ph.i.i.i.i, label %_ZSt5equalISt16reverse_iteratorIN9__gnu_cxx17__normal_iteratorIPKcNSt7__cxx1112basic_stringIcSt11char_traitsIcESaIcEEEEEESC_EbT_SD_T0_.exit, !llvm.loop !7

_ZSt5equalISt16reverse_iteratorIN9__gnu_cxx17__normal_iteratorIPKcNSt7__cxx1112basic_stringIcSt11char_traitsIcESaIcEEEEEESC_EbT_SD_T0_.exit: ; preds = %.lr.ph.i.i.i.i, %9, %2
  %.0 = phi i1 [ false, %2 ], [ true, %9 ], [ %21, %.lr.ph.i.i.i.i ]
  ret i1 %.0
}